target datalayout = "e-m:e-p270:32:32-p271:32:32-p272:64:64-i64:64-i128:128-f80:128-n8:16:32:64-S128"
target triple = "x86_64-pc-linux-gnu"

%"class.doctest::String" = type { %union.anon.7 }
%union.anon.7 = type { %"struct.doctest::String::view", [8 x i8] }
%"struct.doctest::String::view" = type { ptr, i32, i32 }
%"struct.doctest::ContextOptions" = type <{ ptr, %"class.doctest::String", ptr, %"class.doctest::String", %"class.doctest::String", i32, i32, i32, i32, i32, i8, i8, i8, i8, i8, i8, i8, i8, i8, i8, i8, i8, i8, i8, i8, i8, i8, i8, i8, i8, i8, i8, i8, i8, i8, i8, i8, i8 }>

@_ZN7doctest6detail4g_csE = dso_local global ptr null, align 8

; Function Attrs: mustprogress nounwind uwtable
define dso_local noundef ptr @_ZN7doctest17getContextOptionsEv() #1 {
  %1 = load ptr, ptr @_ZN7doctest6detail4g_csE, align 8, !tbaa !84
  ret ptr %1
}

; Function Attrs: mustprogress uwtable
define dso_local noundef ptr @_ZN7doctest20skipPathFromFilenameEPKc(ptr noundef %0) #8 {
  %2 = alloca ptr, align 8
  %3 = alloca ptr, align 8
  %4 = alloca ptr, align 8
  %5 = alloca ptr, align 8
  %6 = alloca i32, align 4
  store ptr %0, ptr %3, align 8, !tbaa !14
  %7 = call noundef ptr @_ZN7doctest17getContextOptionsEv()
  %8 = getelementptr inbounds nuw %"struct.doctest::ContextOptions", ptr %7, i32 0, i32 26
  %9 = load i8, ptr %8, align 4, !tbaa !83, !range !36, !noundef !37
  %10 = trunc i8 %9 to i1
  br i1 %10, label %11, label %34

11:                                               ; preds = %1
  call void @llvm.lifetime.start.p0(i64 8, ptr %4) #7
  %12 = load ptr, ptr %3, align 8, !tbaa !14
  %13 = call noundef ptr @strrchr(ptr noundef %12, i32 noundef 92) #32
  store ptr %13, ptr %4, align 8, !tbaa !14
  call void @llvm.lifetime.start.p0(i64 8, ptr %5) #7
  %14 = load ptr, ptr %3, align 8, !tbaa !14
  %15 = call noundef ptr @strrchr(ptr noundef %14, i32 noundef 47) #32
  store ptr %15, ptr %5, align 8, !tbaa !14
  %16 = load ptr, ptr %4, align 8, !tbaa !14
  %17 = icmp ne ptr %16, null
  br i1 %17, label %21, label %18

18:                                               ; preds = %11
  %19 = load ptr, ptr %5, align 8, !tbaa !14
  %20 = icmp ne ptr %19, null
  br i1 %20, label %21, label %30

21:                                               ; preds = %18, %11
  %22 = load ptr, ptr %4, align 8, !tbaa !14
  %23 = load ptr, ptr %5, align 8, !tbaa !14
  %24 = icmp ugt ptr %22, %23
  br i1 %24, label %25, label %27

25:                                               ; preds = %21
  %26 = load ptr, ptr %4, align 8, !tbaa !14
  store ptr %26, ptr %5, align 8, !tbaa !14
  br label %27

27:                                               ; preds = %25, %21
  %28 = load ptr, ptr %5, align 8, !tbaa !14
  %29 = getelementptr inbounds i8, ptr %28, i64 1
  store ptr %29, ptr %2, align 8
  store i32 1, ptr %6, align 4
  br label %31

30:                                               ; preds = %18
  store i32 0, ptr %6, align 4
  br label %31

31:                                               ; preds = %30, %27
  call void @llvm.lifetime.end.p0(i64 8, ptr %5) #7
  call void @llvm.lifetime.end.p0(i64 8, ptr %4) #7
  %32 = load i32, ptr %6, align 4
  switch i32 %32, label %38 [
    i32 0, label %33
    i32 1, label %36
  ]

33:                                               ; preds = %31
  br label %34

34:                                               ; preds = %33, %1
  %35 = load ptr, ptr %3, align 8, !tbaa !14
  store ptr %35, ptr %2, align 8
  br label %36

36:                                               ; preds = %34, %31
  %37 = load ptr, ptr %2, align 8
  ret ptr %37

38:                                               ; preds = %31
  unreachable
}