; Function Attrs: mustprogress nofree nounwind willreturn memory(read, inaccessiblemem: none) uwtable
define dso_local noundef ptr @_ZN7doctest20skipPathFromFilenameEPKc(ptr noundef readonly %0) local_unnamed_addr #21 {
  %2 = load ptr, ptr @_ZN7doctest6detail4g_csE, align 8, !tbaa !73
  %3 = getelementptr inbounds nuw i8, ptr %2, i64 124
  %4 = load i8, ptr %3, align 4, !tbaa !80, !range !22, !noundef !23
  %5 = trunc nuw i8 %4 to i1
  br i1 %5, label %6, label %13

6:                                                ; preds = %1
  %7 = tail call noundef ptr @strrchr(ptr noundef nonnull dereferenceable(1) %0, i32 noundef 92) #52
  %8 = tail call noundef ptr @strrchr(ptr noundef nonnull dereferenceable(1) %0, i32 noundef 47) #52
  %9 = icmp eq ptr %7, null
  %10 = icmp eq ptr %8, null
  %or.cond.not = and i1 %9, %10
  %11 = icmp ugt ptr %7, %8
  %spec.select = select i1 %11, ptr %7, ptr %8
  %12 = getelementptr inbounds nuw i8, ptr %spec.select, i64 1
  br i1 %or.cond.not, label %13, label %14

13:                                               ; preds = %6, %1
  br label %14

14:                                               ; preds = %6, %13
  %.1 = phi ptr [ %12, %6 ], [ %0, %13 ]
  ret ptr %.1
}